; Function Attrs: nounwind uwtable
define dso_local i32 @Curl_cf_h2_proxy_insert_after(ptr noundef %0, ptr noundef readnone captures(none) %1) local_unnamed_addr #0 {
  %3 = alloca ptr, align 8
  call void @llvm.lifetime.start.p0(i64 8, ptr nonnull %3) #7
  store ptr null, ptr %3, align 8, !tbaa !142
  %4 = load ptr, ptr @Curl_ccalloc, align 8, !tbaa !27
  %5 = tail call ptr %4(i64 noundef 1, i64 noundef 320) #7
  %.not = icmp eq ptr %5, null
  br i1 %.not, label %cf_h2_proxy_ctx_free.exit, label %6

6:                                                ; preds = %2
  %7 = call i32 @Curl_cf_create(ptr noundef nonnull %3, ptr noundef nonnull @Curl_cft_h2_proxy, ptr noundef nonnull %5) #7
  %.not8 = icmp eq i32 %7, 0
  br i1 %.not8, label %8, label %10

8:                                                ; preds = %6
  %9 = load ptr, ptr %3, align 8, !tbaa !142
  call void @Curl_conn_cf_insert_after(ptr noundef %0, ptr noundef %9) #7
  br label %cf_h2_proxy_ctx_free.exit

10:                                               ; preds = %6
  %11 = getelementptr inbounds nuw i8, ptr %5, i64 8
  %.sroa.0.0.copyload.i.i = load ptr, ptr %11, align 8, !tbaa !13
  %12 = load ptr, ptr %5, align 8, !tbaa !15
  %.not.i.i = icmp eq ptr %12, null
  br i1 %.not.i.i, label %cf_h2_proxy_ctx_clear.exit.i, label %13

13:                                               ; preds = %10
  call void @nghttp2_session_del(ptr noundef nonnull %12) #7
  br label %cf_h2_proxy_ctx_clear.exit.i

cf_h2_proxy_ctx_clear.exit.i:                     ; preds = %13, %10
  %14 = getelementptr inbounds nuw i8, ptr %5, i64 16
  call void @Curl_bufq_free(ptr noundef nonnull %14) #7
  %15 = getelementptr inbounds nuw i8, ptr %5, i64 80
  call void @Curl_bufq_free(ptr noundef nonnull %15) #7
  %16 = getelementptr inbounds nuw i8, ptr %5, i64 144
  %17 = load ptr, ptr %16, align 8, !tbaa !26
  call void @Curl_http_resp_free(ptr noundef %17) #7
  %18 = getelementptr inbounds nuw i8, ptr %5, i64 152
  call void @Curl_bufq_free(ptr noundef nonnull %18) #7
  %19 = getelementptr inbounds nuw i8, ptr %5, i64 216
  call void @Curl_bufq_free(ptr noundef nonnull %19) #7
  %20 = load ptr, ptr @Curl_cfree, align 8, !tbaa !27
  %21 = getelementptr inbounds nuw i8, ptr %5, i64 280
  %22 = load ptr, ptr %21, align 8, !tbaa !28
  call void %20(ptr noundef %22) #7
  call void @llvm.memset.p0.i64(ptr noundef nonnull align 8 dereferenceable(320) %5, i8 0, i64 320, i1 false)
  store ptr %.sroa.0.0.copyload.i.i, ptr %11, align 8, !tbaa !13
  %23 = load ptr, ptr @Curl_cfree, align 8, !tbaa !27
  call void %23(ptr noundef nonnull %5) #7
  br label %cf_h2_proxy_ctx_free.exit

cf_h2_proxy_ctx_free.exit:                        ; preds = %2, %cf_h2_proxy_ctx_clear.exit.i, %8
  %.013 = phi i32 [ 0, %8 ], [ %7, %cf_h2_proxy_ctx_clear.exit.i ], [ 27, %2 ]
  call void @llvm.lifetime.end.p0(i64 8, ptr nonnull %3) #7
  ret i32 %.013
}